Certificate:
    Data:
        Version: 3 (0x2)
        Serial Number: 1 (0x1)
    Signature Algorithm: sha1WithRSAEncryption
        Issuer: C=US, ST=Unset, L=Unset, O=Unset, CN=www.example.com
        Validity
            Not Before: Oct 16 06:04:12 2013 GMT
            Not After : Oct 14 06:04:12 2023 GMT
        Subject: C=US, ST=Unset, O=Unset, CN=www.example.com
        Subject Public Key Info:
            Public Key Algorithm: rsaEncryption
                Public-Key: (2048 bit)
                Modulus:
                    00:c4:4b:0f:a4:13:d6:db:c8:c7:29:f5:d2:ef:36:
                    de:ca:30:8e:d4:01:26:a8:7d:f6:95:b6:00:da:be:
                    3c:7f:f7:67:43:5d:c3:d7:ab:57:f9:95:44:f9:da:
                    c0:4f:21:7d:fb:f8:8c:0a:e6:0b:31:57:b9:75:98:
                    7d:2a:9c:02:7c:d7:65:8f:c4:7c:12:13:72:81:b7:
                    36:34:d4:7d:54:cc:37:f6:11:d4:04:cd:f2:07:06:
                    8b:54:c8:d8:3e:68:54:b8:86:e5:f3:7a:89:10:b4:
                    27:43:28:cd:dd:11:60:bd:c6:d3:33:d8:b1:d7:38:
                    2b:4b:81:a8:a9:21:76:4b:27:61:a6:f2:87:17:ef:
                    fa:dc:e8:45:cf:19:79:a0:70:e5:34:e5:91:db:6a:
                    7b:1d:48:20:ad:39:92:9a:2f:b5:04:66:d1:d3:06:
                    3b:c8:a2:5e:07:73:8c:af:59:4e:6e:9a:97:8b:94:
                    6e:07:5f:d8:c2:16:bc:c0:97:e5:15:22:b0:f3:ea:
                    2c:64:c8:89:ee:31:ab:42:91:90:9d:71:68:40:91:
                    3a:7d:1d:1b:d9:88:05:03:4d:d7:88:51:1b:ab:44:
                    c8:80:53:b0:87:05:90:a4:35:f0:d3:c4:f3:58:f5:
                    3b:a3:f0:c7:92:b7:35:d9:43:f0:89:cf:2e:00:b9:
                    c6:23
                Exponent: 65537 (0x10001)
        X509v3 extensions:
            X509v3 Basic Constraints: 
                CA:FALSE
            X509v3 Subject Key Identifier: 
                83:2D:BE:CC:C7:A3:65:B1:BD:74:83:8A:27:46:3F:C5:7D:5A:71:7E
            X509v3 Authority Key Identifier: 
                keyid:95:E3:B1:CE:6B:62:94:1E:89:0D:6D:C1:B0:3B:07:C3:34:96:DC:F9

    Signature Algorithm: sha1WithRSAEncryption
         8e:07:46:bc:2a:e1:8f:4c:a1:fa:9d:51:6b:40:59:62:fa:7f:
         25:39:1e:76:6a:eb:22:ea:1e:9d:67:8f:93:af:4d:78:b8:12:
         4b:23:89:89:03:c5:6a:18:a2:97:5e:38:2a:30:12:ef:6c:74:
         a8:28:af:70:b9:80:fa:22:ee:3d:cb:6d:d8:0b:2d:43:89:de:
         07:e9:b4:fd:0a:7d:b1:7b:d7:7b:52:4d:84:8d:73:7b:6f:a6:
         88:48:c2:8a:be:6a:1d:13:a2:34:3c:c7:ef:e7:b9:4a:96:93:
         00:a8:ea:7f:0f:b3:ba:95:a2:b1:9d:46:46:5e:98:a7:63:79:
         d3:2d:f9:8e:0f:74:c8:0e:29:b0:b7:e8:4d:e1:1d:82:76:cb:
         19:ac:f9:df:c5:ef:bd:1f:09:41:8f:3f:b7:c2:84:0c:c2:8d:
         45:ad:23:77:66:d0:a5:a6:6b:ce:b6:b9:4e:7d:e1:69:fd:d9:
         e3:51:f1:af:de:4a:0a:54:c8:27:61:3b:41:35:65:33:cf:51:
         6d:00:9d:98:97:e3:3b:e2:6e:af:9f:b6:a1:a9:57:26:3d:eb:
         e5:97:3a:51:a3:9e:c8:b5:cf:8f:4e:c6:aa:ec:9f:83:9b:8a:
         78:7d:f8:17:15:21:cf:c5:70:e8:bf:ea:4d:a5:97:d3:79:0d:
         e3:91:3e:5b
-----BEGIN CERTIFICATE-----
MIIDZjCCAk6gAwIBAgIBATANBgkqhkiG9w0BAQUFADBXMQswCQYDVQQGEwJVUzEO
MAwGA1UECAwFVW5zZXQxDjAMBgNVBAcMBVVuc2V0MQ4wDAYDVQQKDAVVbnNldDEY
MBYGA1UEAwwPd3d3LmV4YW1wbGUuY29tMB4XDTEzMTAxNjA2MDQxMloXDTIzMTAx
NDA2MDQxMlowRzELMAkGA1UEBhMCVVMxDjAMBgNVBAgMBVVuc2V0MQ4wDAYDVQQK
DAVVbnNldDEYMBYGA1UEAwwPd3d3LmV4YW1wbGUuY29tMIIBIjANBgkqhkiG9w0B
AQEFAAOCAQ8AMIIBCgKCAQEAxEsPpBPW28jHKfXS7zbeyjCO1AEmqH32lbYA2r48
f/dnQ13D16tX+ZVE+drATyF9+/iMCuYLMVe5dZh9KpwCfNdlj8R8EhNygbc2NNR9
VMw39hHUBM3yBwaLVMjYPmhUuIbl83qJELQnQyjN3RFgvcbTM9ix1zgrS4GoqSF2
SydhpvKHF+/63OhFzxl5oHDlNOWR22p7HUggrTmSmi+1BGbR0wY7yKJeB3OMr1lO
bpqXi5RuB1/Ywha8wJflFSKw8+osZMiJ7jGrQpGQnXFoQJE6fR0b2YgFA03XiFEb
q0TIgFOwhwWQpDXw08TzWPU7o/DHkrc12UPwic8uALnGIwIDAQABo00wSzAJBgNV
HRMEAjAAMB0GA1UdDgQWBBSDLb7Mx6Nlsb10g4onRj/FfVpxfjAfBgNVHSMEGDAW
gBSV47HOa2KUHokNbcGwOwfDNJbc+TANBgkqhkiG9w0BAQUFAAOCAQEAjgdGvCrh
j0yh+p1Ra0BZYvp/JTkedmrrIuoenWePk69NeLgSSyOJiQPFahiil144KjAS72x0
qCivcLmA+iLuPctt2AstQ4neB+m0/Qp9sXvXe1JNhI1ze2+miEjCir5qHROiNDzH
7+e5SpaTAKjqfw+zupWisZ1GRl6Yp2N50y35jg90yA4psLfoTeEdgnbLGaz538Xv
vR8JQY8/t8KEDMKNRa0jd2bQpaZrzra5Tn3haf3Z41Hxr95KClTIJ2E7QTVlM89R
bQCdmJfjO+Jur5+2oalXJj3r5Zc6UaOeyLXPj07Gquyfg5uKeH34FxUhz8Vw6L/q
TaWX03kN45E+Ww==
-----END CERTIFICATE-----
